; Function Attrs: null_pointer_is_valid sspstrong uwtable
define internal i32 @dissect_f1ap_ProtocolIE_ID(ptr noundef %0, i32 noundef %1, ptr noundef %2, ptr noundef %3, i32 noundef %4) #0 {
  %6 = getelementptr inbounds nuw i8, ptr %2, i64 16
  %7 = load ptr, ptr %6, align 8
  %8 = tail call ptr @wmem_file_scope()
  %9 = load i32, ptr @proto_f1ap, align 4
  %10 = tail call ptr @p_get_proto_data(ptr noundef %8, ptr noundef %7, i32 noundef %9, i32 noundef 0)
  %.not.i = icmp eq ptr %10, null
  br i1 %.not.i, label %11, label %f1ap_get_private_data.exit

11:                                               ; preds = %5
  %12 = tail call ptr @wmem_file_scope()
  %13 = tail call noalias dereferenceable_or_null(48) ptr @wmem_alloc0(ptr noundef %12, i64 noundef 48) #7
  %14 = getelementptr inbounds nuw i8, ptr %13, i64 28
  store i32 -1, ptr %14, align 4
  %15 = getelementptr inbounds nuw i8, ptr %13, i64 32
  store i32 1, ptr %15, align 8
  %16 = tail call ptr @wmem_file_scope()
  %17 = load i32, ptr @proto_f1ap, align 4
  tail call void @p_add_proto_data(ptr noundef %16, ptr noundef %7, i32 noundef %17, i32 noundef 0, ptr noundef %13)
  br label %f1ap_get_private_data.exit

f1ap_get_private_data.exit:                       ; preds = %5, %11
  %.0.i = phi ptr [ %10, %5 ], [ %13, %11 ]
  %18 = getelementptr inbounds nuw i8, ptr %.0.i, i64 8
  %19 = tail call i32 @dissect_per_constrained_integer(ptr noundef %0, i32 noundef %1, ptr noundef %2, ptr noundef %3, i32 noundef %4, i32 noundef 0, i32 noundef 65535, ptr noundef nonnull %18, i1 noundef zeroext false)
  %.not = icmp eq ptr %3, null
  br i1 %.not, label %26, label %20

20:                                               ; preds = %f1ap_get_private_data.exit
  %21 = getelementptr inbounds nuw i8, ptr %2, i64 24
  %22 = load ptr, ptr %21, align 8
  %23 = tail call ptr @proto_item_get_parent_nth(ptr noundef %22, i32 noundef 2)
  %24 = load i32, ptr %18, align 8
  %25 = tail call ptr @val_to_str_ext(i32 noundef %24, ptr noundef nonnull @f1ap_ProtocolIE_ID_vals_ext, ptr noundef nonnull @.str.4957)
  tail call void (ptr, ptr, ...) @proto_item_append_text(ptr noundef %23, ptr noundef nonnull @.str.4956, ptr noundef %25)
  br label %26

26:                                               ; preds = %20, %f1ap_get_private_data.exit
  ret i32 %19
}